target datalayout = "e-m:e-p270:32:32-p271:32:32-p272:64:64-i64:64-i128:128-f80:128-n8:16:32:64-S128"
target triple = "x86_64-pc-linux-gnu"

%struct.x509_crt_verify_string = type { i32, ptr }

@.str.22 = private unnamed_addr constant [6 x i8] c"%s%s\0A\00", align 1
@.str.23 = private unnamed_addr constant [43 x i8] c"%sUnknown reason (this should not happen)\0A\00", align 1

; Function Attrs: nounwind uwtable
define hidden i32 @mbedtls_x509_crt_verify_info(ptr noundef %0, i64 noundef %1, ptr noundef %2, i32 noundef %3) #0 {
  %5 = alloca i32, align 4
  %6 = alloca ptr, align 8
  %7 = alloca i64, align 8
  %8 = alloca ptr, align 8
  %9 = alloca i32, align 4
  %10 = alloca i32, align 4
  %11 = alloca ptr, align 8
  %12 = alloca ptr, align 8
  %13 = alloca i64, align 8
  %14 = alloca i32, align 4
  store ptr %0, ptr %6, align 8, !tbaa !8
  store i64 %1, ptr %7, align 8, !tbaa !10
  store ptr %2, ptr %8, align 8, !tbaa !8
  store i32 %3, ptr %9, align 4, !tbaa !12
  call void @llvm.lifetime.start.p0(i64 4, ptr %10) #10
  store i32 -110, ptr %10, align 4, !tbaa !12
  call void @llvm.lifetime.start.p0(i64 8, ptr %11) #10
  call void @llvm.lifetime.start.p0(i64 8, ptr %12) #10
  %15 = load ptr, ptr %6, align 8, !tbaa !8
  store ptr %15, ptr %12, align 8, !tbaa !8
  call void @llvm.lifetime.start.p0(i64 8, ptr %13) #10
  %16 = load i64, ptr %7, align 8, !tbaa !10
  store i64 %16, ptr %13, align 8, !tbaa !10
  store ptr @x509_crt_verify_strings, ptr %11, align 8, !tbaa !71
  br label %17

17:                                               ; preds = %63, %4
  %18 = load ptr, ptr %11, align 8, !tbaa !71
  %19 = getelementptr inbounds nuw %struct.x509_crt_verify_string, ptr %18, i32 0, i32 1
  %20 = load ptr, ptr %19, align 8, !tbaa !73
  %21 = icmp ne ptr %20, null
  br i1 %21, label %22, label %66

22:                                               ; preds = %17
  %23 = load i32, ptr %9, align 4, !tbaa !12
  %24 = load ptr, ptr %11, align 8, !tbaa !71
  %25 = getelementptr inbounds nuw %struct.x509_crt_verify_string, ptr %24, i32 0, i32 0
  %26 = load i32, ptr %25, align 8, !tbaa !75
  %27 = and i32 %23, %26
  %28 = icmp eq i32 %27, 0
  br i1 %28, label %29, label %30

29:                                               ; preds = %22
  br label %63

30:                                               ; preds = %22
  %31 = load ptr, ptr %12, align 8, !tbaa !8
  %32 = load i64, ptr %13, align 8, !tbaa !10
  %33 = load ptr, ptr %8, align 8, !tbaa !8
  %34 = load ptr, ptr %11, align 8, !tbaa !71
  %35 = getelementptr inbounds nuw %struct.x509_crt_verify_string, ptr %34, i32 0, i32 1
  %36 = load ptr, ptr %35, align 8, !tbaa !73
  %37 = call i32 (ptr, i64, ptr, ...) @snprintf(ptr noundef %31, i64 noundef %32, ptr noundef @.str.22, ptr noundef %33, ptr noundef %36) #10
  store i32 %37, ptr %10, align 4, !tbaa !12
  br label %38

38:                                               ; preds = %30
  %39 = load i32, ptr %10, align 4, !tbaa !12
  %40 = icmp slt i32 %39, 0
  br i1 %40, label %46, label %41

41:                                               ; preds = %38
  %42 = load i32, ptr %10, align 4, !tbaa !12
  %43 = sext i32 %42 to i64
  %44 = load i64, ptr %13, align 8, !tbaa !10
  %45 = icmp uge i64 %43, %44
  br i1 %45, label %46, label %47

46:                                               ; preds = %41, %38
  store i32 -10624, ptr %5, align 4
  store i32 1, ptr %14, align 4
  br label %99

47:                                               ; preds = %41
  %48 = load i32, ptr %10, align 4, !tbaa !12
  %49 = sext i32 %48 to i64
  %50 = load i64, ptr %13, align 8, !tbaa !10
  %51 = sub i64 %50, %49
  store i64 %51, ptr %13, align 8, !tbaa !10
  %52 = load i32, ptr %10, align 4, !tbaa !12
  %53 = sext i32 %52 to i64
  %54 = load ptr, ptr %12, align 8, !tbaa !8
  %55 = getelementptr inbounds nuw i8, ptr %54, i64 %53
  store ptr %55, ptr %12, align 8, !tbaa !8
  br label %56

56:                                               ; preds = %47
  br label %57

57:                                               ; preds = %56
  %58 = load ptr, ptr %11, align 8, !tbaa !71
  %59 = getelementptr inbounds nuw %struct.x509_crt_verify_string, ptr %58, i32 0, i32 0
  %60 = load i32, ptr %59, align 8, !tbaa !75
  %61 = load i32, ptr %9, align 4, !tbaa !12
  %62 = xor i32 %61, %60
  store i32 %62, ptr %9, align 4, !tbaa !12
  br label %63

63:                                               ; preds = %57, %29
  %64 = load ptr, ptr %11, align 8, !tbaa !71
  %65 = getelementptr inbounds nuw %struct.x509_crt_verify_string, ptr %64, i32 1
  store ptr %65, ptr %11, align 8, !tbaa !71
  br label %17, !llvm.loop !76

66:                                               ; preds = %17
  %67 = load i32, ptr %9, align 4, !tbaa !12
  %68 = icmp ne i32 %67, 0
  br i1 %68, label %69, label %94

69:                                               ; preds = %66
  %70 = load ptr, ptr %12, align 8, !tbaa !8
  %71 = load i64, ptr %13, align 8, !tbaa !10
  %72 = load ptr, ptr %8, align 8, !tbaa !8
  %73 = call i32 (ptr, i64, ptr, ...) @snprintf(ptr noundef %70, i64 noundef %71, ptr noundef @.str.23, ptr noundef %72) #10
  store i32 %73, ptr %10, align 4, !tbaa !12
  br label %74

74:                                               ; preds = %69
  %75 = load i32, ptr %10, align 4, !tbaa !12
  %76 = icmp slt i32 %75, 0
  br i1 %76, label %82, label %77

77:                                               ; preds = %74
  %78 = load i32, ptr %10, align 4, !tbaa !12
  %79 = sext i32 %78 to i64
  %80 = load i64, ptr %13, align 8, !tbaa !10
  %81 = icmp uge i64 %79, %80
  br i1 %81, label %82, label %83

82:                                               ; preds = %77, %74
  store i32 -10624, ptr %5, align 4
  store i32 1, ptr %14, align 4
  br label %99

83:                                               ; preds = %77
  %84 = load i32, ptr %10, align 4, !tbaa !12
  %85 = sext i32 %84 to i64
  %86 = load i64, ptr %13, align 8, !tbaa !10
  %87 = sub i64 %86, %85
  store i64 %87, ptr %13, align 8, !tbaa !10
  %88 = load i32, ptr %10, align 4, !tbaa !12
  %89 = sext i32 %88 to i64
  %90 = load ptr, ptr %12, align 8, !tbaa !8
  %91 = getelementptr inbounds nuw i8, ptr %90, i64 %89
  store ptr %91, ptr %12, align 8, !tbaa !8
  br label %92

92:                                               ; preds = %83
  br label %93

93:                                               ; preds = %92
  br label %94

94:                                               ; preds = %93, %66
  %95 = load i64, ptr %7, align 8, !tbaa !10
  %96 = load i64, ptr %13, align 8, !tbaa !10
  %97 = sub i64 %95, %96
  %98 = trunc i64 %97 to i32
  store i32 %98, ptr %5, align 4
  store i32 1, ptr %14, align 4
  br label %99

99:                                               ; preds = %94, %82, %46
  call void @llvm.lifetime.end.p0(i64 8, ptr %13) #10
  call void @llvm.lifetime.end.p0(i64 8, ptr %12) #10
  call void @llvm.lifetime.end.p0(i64 8, ptr %11) #10
  call void @llvm.lifetime.end.p0(i64 4, ptr %10) #10
  %100 = load i32, ptr %5, align 4
  ret i32 %100
}