; Function Attrs: nofree nounwind uwtable
define hidden i32 @mbedtls_x509_crt_verify_info(ptr noundef writeonly captures(none) %0, i64 noundef %1, ptr noundef %2, i32 noundef %3) local_unnamed_addr #7 {
  br label %5

5:                                                ; preds = %4, %19
  %6 = phi ptr [ @.str.31, %4 ], [ %22, %19 ]
  %.052 = phi i64 [ %1, %4 ], [ %.1, %19 ]
  %.03251 = phi ptr [ %0, %4 ], [ %.133, %19 ]
  %.03450 = phi ptr [ @x509_crt_verify_strings, %4 ], [ %20, %19 ]
  %.03549 = phi i32 [ %3, %4 ], [ %.136, %19 ]
  %7 = load i32, ptr %.03450, align 8, !tbaa !75
  %8 = and i32 %7, %.03549
  %9 = icmp eq i32 %8, 0
  br i1 %9, label %19, label %10

10:                                               ; preds = %5
  %11 = tail call i32 (ptr, i64, ptr, ...) @snprintf(ptr noundef %.03251, i64 noundef %.052, ptr noundef nonnull @.str.22, ptr noundef %2, ptr noundef nonnull %6) #17
  %12 = icmp slt i32 %11, 0
  br i1 %12, label %.loopexit, label %13

13:                                               ; preds = %10
  %14 = zext nneg i32 %11 to i64
  %.not45 = icmp ugt i64 %.052, %14
  br i1 %.not45, label %15, label %.loopexit

15:                                               ; preds = %13
  %16 = sub nuw i64 %.052, %14
  %17 = getelementptr inbounds nuw i8, ptr %.03251, i64 %14
  %18 = xor i32 %7, %.03549
  br label %19

19:                                               ; preds = %5, %15
  %.136 = phi i32 [ %.03549, %5 ], [ %18, %15 ]
  %.133 = phi ptr [ %.03251, %5 ], [ %17, %15 ]
  %.1 = phi i64 [ %.052, %5 ], [ %16, %15 ]
  %20 = getelementptr inbounds nuw i8, ptr %.03450, i64 16
  %21 = getelementptr inbounds nuw i8, ptr %.03450, i64 24
  %22 = load ptr, ptr %21, align 8, !tbaa !77
  %.not = icmp eq ptr %22, null
  br i1 %.not, label %23, label %5, !llvm.loop !78

23:                                               ; preds = %19
  %.not43 = icmp eq i32 %.136, 0
  br i1 %.not43, label %31, label %24

24:                                               ; preds = %23
  %25 = tail call i32 (ptr, i64, ptr, ...) @snprintf(ptr noundef %.133, i64 noundef %.1, ptr noundef nonnull @.str.23, ptr noundef %2) #17
  %26 = icmp slt i32 %25, 0
  br i1 %26, label %.loopexit, label %27

27:                                               ; preds = %24
  %28 = zext nneg i32 %25 to i64
  %.not44 = icmp ugt i64 %.1, %28
  br i1 %.not44, label %29, label %.loopexit

29:                                               ; preds = %27
  %30 = sub nuw i64 %.1, %28
  br label %31

31:                                               ; preds = %29, %23
  %.2 = phi i64 [ %30, %29 ], [ %.1, %23 ]
  %32 = sub i64 %1, %.2
  %33 = trunc i64 %32 to i32
  br label %.loopexit

.loopexit:                                        ; preds = %10, %13, %24, %27, %31
  %.037 = phi i32 [ %33, %31 ], [ -10624, %27 ], [ -10624, %24 ], [ -10624, %13 ], [ -10624, %10 ]
  ret i32 %.037
}